; Function Attrs: null_pointer_is_valid sspstrong uwtable
define internal i32 @dissect_h245_GenericMessage(ptr noundef %0, i32 noundef %1, ptr noundef %2, ptr noundef %3, i32 noundef %4) #1 {
  %6 = getelementptr inbounds nuw i8, ptr %2, i64 48
  %7 = load ptr, ptr %6, align 8
  %8 = tail call ptr @gef_ctx_get(ptr noundef %7)
  %.not = icmp eq ptr %8, null
  br i1 %.not, label %9, label %15

9:                                                ; preds = %5
  %10 = getelementptr inbounds nuw i8, ptr %2, i64 16
  %11 = load ptr, ptr %10, align 8
  %12 = getelementptr inbounds nuw i8, ptr %11, i64 408
  %13 = load ptr, ptr %12, align 8
  %14 = tail call ptr @gef_ctx_alloc(ptr noundef %13, ptr noundef null, ptr noundef nonnull @.str.107)
  store ptr %14, ptr %6, align 8
  br label %15

15:                                               ; preds = %9, %5
  %16 = load i32, ptr @ett_h245_GenericMessage, align 4
  %17 = tail call i32 @dissect_per_sequence(ptr noundef %0, i32 noundef %1, ptr noundef %2, ptr noundef %3, i32 noundef %4, i32 noundef %16, ptr noundef nonnull @GenericMessage_sequence)
  store ptr %7, ptr %6, align 8
  ret i32 %17
}